target datalayout = "e-m:e-p270:32:32-p271:32:32-p272:64:64-i64:64-i128:128-f80:128-n8:16:32:64-S128"
target triple = "x86_64-pc-linux-gnu"

%struct._packet_info = type { ptr, ptr, i32, i32, %struct.nstime_t, %struct.nstime_t, %struct.nstime_t, i8, ptr, ptr, ptr, ptr, %struct._address, %struct._address, %struct._address, %struct._address, %struct._address, %struct._address, i32, ptr, i8, [3 x i8], %struct.anon, i32, i32, i32, i32, ptr, i8, ptr, ptr, i16, i16, i32, i32, i16, i32, i32, ptr, ptr, ptr, i8, i8, i16, i16, i16, i32, i16, i16, ptr, ptr, ptr, ptr, ptr, i32, i32 }
%struct.nstime_t = type { i64, i32 }
%struct._address = type { i32, i32, ptr, ptr }
%struct.anon = type { i8, [3 x i8] }
%struct._proto_node = type { ptr, ptr, ptr, ptr, ptr, ptr, ptr }
%struct.field_info = type { ptr, i32, i32, i32, i32, i32, i32, ptr, ptr, ptr, i32, i32 }

@hf_acap_response = internal global i32 0, align 4
@.str = private unnamed_addr constant [9 x i8] c"Response\00", align 1
@hf_acap_request = internal global i32 0, align 4
@.str.3 = private unnamed_addr constant [8 x i8] c"Request\00", align 1
@hf_acap_request_tag = internal global i32 0, align 4
@hf_acap_response_tag = internal global i32 0, align 4
@hf_acap_request_data = internal global i32 0, align 4
@hf_acap_response_data = internal global i32 0, align 4
@ett_acap = internal global i32 0, align 4
@ett_acap_reqresp = internal global i32 0, align 4
@.str.13 = private unnamed_addr constant [5 x i8] c"ACAP\00", align 1
@proto_acap = internal global i32 0, align 4
@g_ascii_table = external constant ptr, align 8
@.str.16 = private unnamed_addr constant [7 x i8] c"%s: %s\00", align 1

; Function Attrs: inlinehint nounwind null_pointer_is_valid sspstrong uwtable
define internal void @proto_item_set_hidden(ptr noundef %0) #3 {
  %2 = alloca ptr, align 8
  store ptr %0, ptr %2, align 8
  %3 = load ptr, ptr %2, align 8
  %4 = icmp ne ptr %3, null
  br i1 %4, label %5, label %24

5:                                                ; preds = %1
  br label %6

6:                                                ; preds = %5
  %7 = load ptr, ptr %2, align 8
  %8 = getelementptr inbounds nuw %struct._proto_node, ptr %7, i32 0, i32 5
  %9 = load ptr, ptr %8, align 8
  %10 = icmp ne ptr %9, null
  br i1 %10, label %11, label %22

11:                                               ; preds = %6
  %12 = load ptr, ptr %2, align 8
  %13 = getelementptr inbounds nuw %struct._proto_node, ptr %12, i32 0, i32 5
  %14 = load ptr, ptr %13, align 8
  %15 = getelementptr inbounds nuw %struct.field_info, ptr %14, i32 0, i32 6
  %16 = load i32, ptr %15, align 4
  %17 = or i32 %16, 1
  %18 = load ptr, ptr %2, align 8
  %19 = getelementptr inbounds nuw %struct._proto_node, ptr %18, i32 0, i32 5
  %20 = load ptr, ptr %19, align 8
  %21 = getelementptr inbounds nuw %struct.field_info, ptr %20, i32 0, i32 6
  store i32 %17, ptr %21, align 4
  br label %22

22:                                               ; preds = %11, %6
  br label %23

23:                                               ; preds = %22
  br label %24

24:                                               ; preds = %23, %1
  ret void
}

; Function Attrs: null_pointer_is_valid sspstrong uwtable
define internal i32 @dissect_acap(ptr noundef %0, ptr noundef %1, ptr noundef %2, ptr noundef %3) #0 {
  %5 = alloca i32, align 4
  %6 = alloca ptr, align 8
  %7 = alloca ptr, align 8
  %8 = alloca ptr, align 8
  %9 = alloca ptr, align 8
  %10 = alloca i8, align 1
  %11 = alloca ptr, align 8
  %12 = alloca ptr, align 8
  %13 = alloca ptr, align 8
  %14 = alloca ptr, align 8
  %15 = alloca i32, align 4
  %16 = alloca ptr, align 8
  %17 = alloca i32, align 4
  %18 = alloca i32, align 4
  %19 = alloca i32, align 4
  %20 = alloca ptr, align 8
  %21 = alloca i32, align 4
  store ptr %0, ptr %6, align 8
  store ptr %1, ptr %7, align 8
  store ptr %2, ptr %8, align 8
  store ptr %3, ptr %9, align 8
  call void @llvm.lifetime.start.p0(i64 1, ptr %10) #4
  call void @llvm.lifetime.start.p0(i64 8, ptr %11) #4
  call void @llvm.lifetime.start.p0(i64 8, ptr %12) #4
  call void @llvm.lifetime.start.p0(i64 8, ptr %13) #4
  call void @llvm.lifetime.start.p0(i64 8, ptr %14) #4
  call void @llvm.lifetime.start.p0(i64 4, ptr %15) #4
  store i32 0, ptr %15, align 4
  call void @llvm.lifetime.start.p0(i64 8, ptr %16) #4
  call void @llvm.lifetime.start.p0(i64 4, ptr %17) #4
  call void @llvm.lifetime.start.p0(i64 4, ptr %18) #4
  call void @llvm.lifetime.start.p0(i64 4, ptr %19) #4
  call void @llvm.lifetime.start.p0(i64 8, ptr %20) #4
  %22 = load ptr, ptr @g_ascii_table, align 8
  %23 = load ptr, ptr %6, align 8
  %24 = load i32, ptr %15, align 4
  %25 = call zeroext i8 @tvb_get_uint8(ptr noundef %23, i32 noundef %24)
  %26 = zext i8 %25 to i64
  %27 = getelementptr i16, ptr %22, i64 %26
  %28 = load i16, ptr %27, align 2
  %29 = zext i16 %28 to i32
  %30 = and i32 %29, 64
  %31 = icmp ne i32 %30, 0
  br i1 %31, label %33, label %32

32:                                               ; preds = %4
  store i32 0, ptr %5, align 4
  store i32 1, ptr %21, align 4
  br label %199

33:                                               ; preds = %4
  %34 = load ptr, ptr %7, align 8
  %35 = getelementptr inbounds nuw %struct._packet_info, ptr %34, i32 0, i32 1
  %36 = load ptr, ptr %35, align 8
  call void @col_set_str(ptr noundef %36, i32 noundef 35, ptr noundef @.str.13)
  %37 = load ptr, ptr %6, align 8
  %38 = load i32, ptr %15, align 4
  %39 = call i32 @tvb_find_line_end(ptr noundef %37, i32 noundef %38, i32 noundef -1, ptr noundef %17, i1 noundef zeroext false)
  store i32 %39, ptr %18, align 4
  %40 = load ptr, ptr %6, align 8
  %41 = load i32, ptr %15, align 4
  %42 = load i32, ptr %18, align 4
  %43 = call ptr @tvb_get_ptr(ptr noundef %40, i32 noundef %41, i32 noundef %42)
  store ptr %43, ptr %16, align 8
  %44 = load ptr, ptr %7, align 8
  %45 = getelementptr inbounds nuw %struct._packet_info, ptr %44, i32 0, i32 26
  %46 = load i32, ptr %45, align 4
  %47 = load ptr, ptr %7, align 8
  %48 = getelementptr inbounds nuw %struct._packet_info, ptr %47, i32 0, i32 25
  %49 = load i32, ptr %48, align 8
  %50 = icmp eq i32 %46, %49
  br i1 %50, label %51, label %52

51:                                               ; preds = %33
  store i8 1, ptr %10, align 1
  br label %53

52:                                               ; preds = %33
  store i8 0, ptr %10, align 1
  br label %53

53:                                               ; preds = %52, %51
  %54 = load ptr, ptr %7, align 8
  %55 = getelementptr inbounds nuw %struct._packet_info, ptr %54, i32 0, i32 1
  %56 = load ptr, ptr %55, align 8
  %57 = load i8, ptr %10, align 1, !range !6, !noundef !7
  %58 = trunc i8 %57 to i1
  %59 = select i1 %58, ptr @.str.3, ptr @.str
  %60 = load ptr, ptr %7, align 8
  %61 = getelementptr inbounds nuw %struct._packet_info, ptr %60, i32 0, i32 51
  %62 = load ptr, ptr %61, align 8
  %63 = load ptr, ptr %16, align 8
  %64 = load i32, ptr %18, align 4
  %65 = sext i32 %64 to i64
  %66 = call ptr @format_text(ptr noundef %62, ptr noundef %63, i64 noundef %65)
  call void (ptr, i32, ptr, ...) @col_add_fstr(ptr noundef %56, i32 noundef 25, ptr noundef @.str.16, ptr noundef %59, ptr noundef %66)
  %67 = load ptr, ptr %8, align 8
  %68 = icmp ne ptr %67, null
  br i1 %68, label %69, label %196

69:                                               ; preds = %53
  %70 = load ptr, ptr %8, align 8
  %71 = load i32, ptr @proto_acap, align 4
  %72 = load ptr, ptr %6, align 8
  %73 = load i32, ptr %15, align 4
  %74 = call ptr @proto_tree_add_item(ptr noundef %70, i32 noundef %71, ptr noundef %72, i32 noundef %73, i32 noundef -1, i32 noundef 0)
  store ptr %74, ptr %13, align 8
  %75 = load ptr, ptr %13, align 8
  %76 = load i32, ptr @ett_acap, align 4
  %77 = call ptr @proto_item_add_subtree(ptr noundef %75, i32 noundef %76)
  store ptr %77, ptr %11, align 8
  %78 = load i8, ptr %10, align 1, !range !6, !noundef !7
  %79 = trunc i8 %78 to i1
  br i1 %79, label %80, label %86

80:                                               ; preds = %69
  %81 = load ptr, ptr %11, align 8
  %82 = load i32, ptr @hf_acap_request, align 4
  %83 = load ptr, ptr %6, align 8
  %84 = call ptr @proto_tree_add_boolean(ptr noundef %81, i32 noundef %82, ptr noundef %83, i32 noundef 0, i32 noundef 0, i64 noundef 1)
  store ptr %84, ptr %14, align 8
  %85 = load ptr, ptr %14, align 8
  call void @proto_item_set_hidden(ptr noundef %85)
  br label %92

86:                                               ; preds = %69
  %87 = load ptr, ptr %11, align 8
  %88 = load i32, ptr @hf_acap_response, align 4
  %89 = load ptr, ptr %6, align 8
  %90 = call ptr @proto_tree_add_boolean(ptr noundef %87, i32 noundef %88, ptr noundef %89, i32 noundef 0, i32 noundef 0, i64 noundef 1)
  store ptr %90, ptr %14, align 8
  %91 = load ptr, ptr %14, align 8
  call void @proto_item_set_hidden(ptr noundef %91)
  br label %92

92:                                               ; preds = %86, %80
  %93 = load ptr, ptr %11, align 8
  %94 = load ptr, ptr %6, align 8
  %95 = load i32, ptr %15, align 4
  %96 = load i32, ptr %17, align 4
  %97 = load i32, ptr %15, align 4
  %98 = sub i32 %96, %97
  %99 = call ptr @proto_tree_add_format_text(ptr noundef %93, ptr noundef %94, i32 noundef %95, i32 noundef %98)
  store ptr %99, ptr %13, align 8
  %100 = load ptr, ptr %13, align 8
  %101 = load i32, ptr @ett_acap_reqresp, align 4
  %102 = call ptr @proto_item_add_subtree(ptr noundef %100, i32 noundef %101)
  store ptr %102, ptr %12, align 8
  %103 = load ptr, ptr %16, align 8
  %104 = load ptr, ptr %16, align 8
  %105 = load i32, ptr %18, align 4
  %106 = sext i32 %105 to i64
  %107 = getelementptr i8, ptr %104, i64 %106
  %108 = call i32 @get_token_len(ptr noundef %103, ptr noundef %107, ptr noundef %20)
  store i32 %108, ptr %19, align 4
  %109 = load i32, ptr %19, align 4
  %110 = icmp ne i32 %109, 0
  br i1 %110, label %111, label %160

111:                                              ; preds = %92
  %112 = load i8, ptr %10, align 1, !range !6, !noundef !7
  %113 = trunc i8 %112 to i1
  br i1 %113, label %114, label %128

114:                                              ; preds = %111
  %115 = load ptr, ptr %12, align 8
  %116 = load i32, ptr @hf_acap_request_tag, align 4
  %117 = load ptr, ptr %6, align 8
  %118 = load i32, ptr %15, align 4
  %119 = load i32, ptr %19, align 4
  %120 = load ptr, ptr %7, align 8
  %121 = getelementptr inbounds nuw %struct._packet_info, ptr %120, i32 0, i32 51
  %122 = load ptr, ptr %121, align 8
  %123 = load ptr, ptr %16, align 8
  %124 = load i32, ptr %19, align 4
  %125 = sext i32 %124 to i64
  %126 = call ptr @format_text(ptr noundef %122, ptr noundef %123, i64 noundef %125)
  %127 = call ptr @proto_tree_add_string(ptr noundef %115, i32 noundef %116, ptr noundef %117, i32 noundef %118, i32 noundef %119, ptr noundef %126)
  br label %142

128:                                              ; preds = %111
  %129 = load ptr, ptr %12, align 8
  %130 = load i32, ptr @hf_acap_response_tag, align 4
  %131 = load ptr, ptr %6, align 8
  %132 = load i32, ptr %15, align 4
  %133 = load i32, ptr %19, align 4
  %134 = load ptr, ptr %7, align 8
  %135 = getelementptr inbounds nuw %struct._packet_info, ptr %134, i32 0, i32 51
  %136 = load ptr, ptr %135, align 8
  %137 = load ptr, ptr %16, align 8
  %138 = load i32, ptr %19, align 4
  %139 = sext i32 %138 to i64
  %140 = call ptr @format_text(ptr noundef %136, ptr noundef %137, i64 noundef %139)
  %141 = call ptr @proto_tree_add_string(ptr noundef %129, i32 noundef %130, ptr noundef %131, i32 noundef %132, i32 noundef %133, ptr noundef %140)
  br label %142

142:                                              ; preds = %128, %114
  %143 = load ptr, ptr %20, align 8
  %144 = load ptr, ptr %16, align 8
  %145 = ptrtoint ptr %143 to i64
  %146 = ptrtoint ptr %144 to i64
  %147 = sub i64 %145, %146
  %148 = trunc i64 %147 to i32
  %149 = load i32, ptr %15, align 4
  %150 = add i32 %149, %148
  store i32 %150, ptr %15, align 4
  %151 = load ptr, ptr %20, align 8
  %152 = load ptr, ptr %16, align 8
  %153 = ptrtoint ptr %151 to i64
  %154 = ptrtoint ptr %152 to i64
  %155 = sub i64 %153, %154
  %156 = trunc i64 %155 to i32
  %157 = load i32, ptr %18, align 4
  %158 = sub i32 %157, %156
  store i32 %158, ptr %18, align 4
  %159 = load ptr, ptr %20, align 8
  store ptr %159, ptr %16, align 8
  br label %160

160:                                              ; preds = %142, %92
  %161 = load i32, ptr %18, align 4
  %162 = icmp ne i32 %161, 0
  br i1 %162, label %163, label %195

163:                                              ; preds = %160
  %164 = load i8, ptr %10, align 1, !range !6, !noundef !7
  %165 = trunc i8 %164 to i1
  br i1 %165, label %166, label %180

166:                                              ; preds = %163
  %167 = load ptr, ptr %12, align 8
  %168 = load i32, ptr @hf_acap_request_data, align 4
  %169 = load ptr, ptr %6, align 8
  %170 = load i32, ptr %15, align 4
  %171 = load i32, ptr %18, align 4
  %172 = load ptr, ptr %7, align 8
  %173 = getelementptr inbounds nuw %struct._packet_info, ptr %172, i32 0, i32 51
  %174 = load ptr, ptr %173, align 8
  %175 = load ptr, ptr %16, align 8
  %176 = load i32, ptr %18, align 4
  %177 = sext i32 %176 to i64
  %178 = call ptr @format_text(ptr noundef %174, ptr noundef %175, i64 noundef %177)
  %179 = call ptr @proto_tree_add_string(ptr noundef %167, i32 noundef %168, ptr noundef %169, i32 noundef %170, i32 noundef %171, ptr noundef %178)
  br label %194

180:                                              ; preds = %163
  %181 = load ptr, ptr %12, align 8
  %182 = load i32, ptr @hf_acap_response_data, align 4
  %183 = load ptr, ptr %6, align 8
  %184 = load i32, ptr %15, align 4
  %185 = load i32, ptr %18, align 4
  %186 = load ptr, ptr %7, align 8
  %187 = getelementptr inbounds nuw %struct._packet_info, ptr %186, i32 0, i32 51
  %188 = load ptr, ptr %187, align 8
  %189 = load ptr, ptr %16, align 8
  %190 = load i32, ptr %18, align 4
  %191 = sext i32 %190 to i64
  %192 = call ptr @format_text(ptr noundef %188, ptr noundef %189, i64 noundef %191)
  %193 = call ptr @proto_tree_add_string(ptr noundef %181, i32 noundef %182, ptr noundef %183, i32 noundef %184, i32 noundef %185, ptr noundef %192)
  br label %194

194:                                              ; preds = %180, %166
  br label %195

195:                                              ; preds = %194, %160
  br label %196

196:                                              ; preds = %195, %53
  %197 = load ptr, ptr %6, align 8
  %198 = call i32 @tvb_captured_length(ptr noundef %197)
  store i32 %198, ptr %5, align 4
  store i32 1, ptr %21, align 4
  br label %199

199:                                              ; preds = %196, %32
  call void @llvm.lifetime.end.p0(i64 8, ptr %20) #4
  call void @llvm.lifetime.end.p0(i64 4, ptr %19) #4
  call void @llvm.lifetime.end.p0(i64 4, ptr %18) #4
  call void @llvm.lifetime.end.p0(i64 4, ptr %17) #4
  call void @llvm.lifetime.end.p0(i64 8, ptr %16) #4
  call void @llvm.lifetime.end.p0(i64 4, ptr %15) #4
  call void @llvm.lifetime.end.p0(i64 8, ptr %14) #4
  call void @llvm.lifetime.end.p0(i64 8, ptr %13) #4
  call void @llvm.lifetime.end.p0(i64 8, ptr %12) #4
  call void @llvm.lifetime.end.p0(i64 8, ptr %11) #4
  call void @llvm.lifetime.end.p0(i64 1, ptr %10) #4
  %200 = load i32, ptr %5, align 4
  ret i32 %200
}