; Function Attrs: null_pointer_is_valid sspstrong uwtable
define internal i32 @dissect_acap(ptr noundef %0, ptr noundef readonly captures(none) %1, ptr noundef %2, ptr readnone captures(none) %3) #0 {
  %5 = alloca i32, align 4
  %6 = alloca ptr, align 8
  call void @llvm.lifetime.start.p0(i64 4, ptr nonnull %5) #3
  call void @llvm.lifetime.start.p0(i64 8, ptr nonnull %6) #3
  %7 = load ptr, ptr @g_ascii_table, align 8
  %8 = tail call zeroext i8 @tvb_get_uint8(ptr noundef %0, i32 noundef 0)
  %9 = zext i8 %8 to i64
  %10 = getelementptr i16, ptr %7, i64 %9
  %11 = load i16, ptr %10, align 2
  %12 = and i16 %11, 64
  %.not = icmp eq i16 %12, 0
  br i1 %.not, label %74, label %13

13:                                               ; preds = %4
  %14 = getelementptr inbounds nuw i8, ptr %1, i64 8
  %15 = load ptr, ptr %14, align 8
  tail call void @col_set_str(ptr noundef %15, i32 noundef 35, ptr noundef nonnull @.str.13)
  %16 = call i32 @tvb_find_line_end(ptr noundef %0, i32 noundef 0, i32 noundef -1, ptr noundef nonnull %5, i1 noundef zeroext false)
  %17 = call ptr @tvb_get_ptr(ptr noundef %0, i32 noundef 0, i32 noundef %16)
  %18 = getelementptr inbounds nuw i8, ptr %1, i64 292
  %19 = load i32, ptr %18, align 4
  %20 = getelementptr inbounds nuw i8, ptr %1, i64 288
  %21 = load i32, ptr %20, align 8
  %22 = icmp eq i32 %19, %21
  %.str.3..str = select i1 %22, ptr @.str.3, ptr @.str
  %23 = load ptr, ptr %14, align 8
  %24 = getelementptr inbounds nuw i8, ptr %1, i64 408
  %25 = load ptr, ptr %24, align 8
  %26 = sext i32 %16 to i64
  %27 = call ptr @format_text(ptr noundef %25, ptr noundef %17, i64 noundef %26)
  call void (ptr, i32, ptr, ...) @col_add_fstr(ptr noundef %23, i32 noundef 25, ptr noundef nonnull @.str.16, ptr noundef nonnull %.str.3..str, ptr noundef %27)
  %.not78 = icmp eq ptr %2, null
  br i1 %.not78, label %72, label %28

28:                                               ; preds = %13
  %29 = load i32, ptr @proto_acap, align 4
  %30 = call ptr @proto_tree_add_item(ptr noundef nonnull %2, i32 noundef %29, ptr noundef %0, i32 noundef 0, i32 noundef -1, i32 noundef 0)
  %31 = load i32, ptr @ett_acap, align 4
  %32 = call ptr @proto_item_add_subtree(ptr noundef %30, i32 noundef %31)
  br i1 %22, label %33, label %39

33:                                               ; preds = %28
  %34 = load i32, ptr @hf_acap_request, align 4
  %35 = call ptr @proto_tree_add_boolean(ptr noundef %32, i32 noundef %34, ptr noundef %0, i32 noundef 0, i32 noundef 0, i64 noundef 1)
  %.not.i = icmp eq ptr %35, null
  br i1 %.not.i, label %proto_item_set_hidden.exit, label %36

36:                                               ; preds = %33
  %37 = getelementptr inbounds nuw i8, ptr %35, i64 40
  %38 = load ptr, ptr %37, align 8
  %.not5.i = icmp eq ptr %38, null
  br i1 %.not5.i, label %proto_item_set_hidden.exit, label %proto_item_set_hidden.exit.sink.split

39:                                               ; preds = %28
  %40 = load i32, ptr @hf_acap_response, align 4
  %41 = call ptr @proto_tree_add_boolean(ptr noundef %32, i32 noundef %40, ptr noundef %0, i32 noundef 0, i32 noundef 0, i64 noundef 1)
  %.not.i81 = icmp eq ptr %41, null
  br i1 %.not.i81, label %proto_item_set_hidden.exit, label %42

42:                                               ; preds = %39
  %43 = getelementptr inbounds nuw i8, ptr %41, i64 40
  %44 = load ptr, ptr %43, align 8
  %.not5.i82 = icmp eq ptr %44, null
  br i1 %.not5.i82, label %proto_item_set_hidden.exit, label %proto_item_set_hidden.exit.sink.split

proto_item_set_hidden.exit.sink.split:            ; preds = %42, %36
  %.sink86 = phi ptr [ %38, %36 ], [ %44, %42 ]
  %45 = getelementptr inbounds nuw i8, ptr %.sink86, i64 28
  %46 = load i32, ptr %45, align 4
  %47 = or i32 %46, 1
  store i32 %47, ptr %45, align 4
  br label %proto_item_set_hidden.exit

proto_item_set_hidden.exit:                       ; preds = %proto_item_set_hidden.exit.sink.split, %42, %39, %36, %33
  %48 = load i32, ptr %5, align 4
  %49 = call ptr @proto_tree_add_format_text(ptr noundef %32, ptr noundef %0, i32 noundef 0, i32 noundef %48)
  %50 = load i32, ptr @ett_acap_reqresp, align 4
  %51 = call ptr @proto_item_add_subtree(ptr noundef %49, i32 noundef %50)
  %52 = getelementptr i8, ptr %17, i64 %26
  %53 = call i32 @get_token_len(ptr noundef %17, ptr noundef %52, ptr noundef nonnull %6)
  %.not79 = icmp eq i32 %53, 0
  br i1 %.not79, label %66, label %54

54:                                               ; preds = %proto_item_set_hidden.exit
  %55 = load ptr, ptr %24, align 8
  %56 = sext i32 %53 to i64
  %hf_acap_request_tag.val = load i32, ptr @hf_acap_request_tag, align 4
  %hf_acap_response_tag.val = load i32, ptr @hf_acap_response_tag, align 4
  %57 = select i1 %22, i32 %hf_acap_request_tag.val, i32 %hf_acap_response_tag.val
  %58 = call ptr @format_text(ptr noundef %55, ptr noundef %17, i64 noundef %56)
  %59 = call ptr @proto_tree_add_string(ptr noundef %51, i32 noundef %57, ptr noundef %0, i32 noundef 0, i32 noundef %53, ptr noundef %58)
  %60 = load ptr, ptr %6, align 8
  %61 = ptrtoint ptr %60 to i64
  %62 = ptrtoint ptr %17 to i64
  %63 = sub i64 %61, %62
  %64 = trunc i64 %63 to i32
  %65 = sub i32 %16, %64
  br label %66

66:                                               ; preds = %54, %proto_item_set_hidden.exit
  %.074 = phi i32 [ %64, %54 ], [ 0, %proto_item_set_hidden.exit ]
  %.073 = phi ptr [ %60, %54 ], [ %17, %proto_item_set_hidden.exit ]
  %.072 = phi i32 [ %65, %54 ], [ %16, %proto_item_set_hidden.exit ]
  %.not80 = icmp eq i32 %.072, 0
  br i1 %.not80, label %72, label %.sink.split

.sink.split:                                      ; preds = %66
  %67 = load ptr, ptr %24, align 8
  %68 = sext i32 %.072 to i64
  %hf_acap_request_data.val = load i32, ptr @hf_acap_request_data, align 4
  %hf_acap_response_data.val = load i32, ptr @hf_acap_response_data, align 4
  %69 = select i1 %22, i32 %hf_acap_request_data.val, i32 %hf_acap_response_data.val
  %70 = call ptr @format_text(ptr noundef %67, ptr noundef %.073, i64 noundef %68)
  %71 = call ptr @proto_tree_add_string(ptr noundef %51, i32 noundef %69, ptr noundef %0, i32 noundef %.074, i32 noundef %.072, ptr noundef %70)
  br label %72

72:                                               ; preds = %.sink.split, %66, %13
  %73 = call i32 @tvb_captured_length(ptr noundef %0)
  br label %74

74:                                               ; preds = %4, %72
  %.0 = phi i32 [ %73, %72 ], [ 0, %4 ]
  call void @llvm.lifetime.end.p0(i64 8, ptr nonnull %6) #3
  call void @llvm.lifetime.end.p0(i64 4, ptr nonnull %5) #3
  ret i32 %.0
}